; Function Attrs: mustprogress nofree norecurse nosync nounwind memory(readwrite, inaccessiblemem: none) uwtable
define dso_local void @_ZN4enki10Dependency13SetDependencyEPKNS_12ICompletableEPS1_(ptr noundef nonnull align 8 dereferenceable(24) %0, ptr noundef %1, ptr noundef %2) local_unnamed_addr #25 align 2 {
  %4 = getelementptr inbounds nuw i8, ptr %0, i64 8
  %5 = load ptr, ptr %4, align 8, !tbaa !143
  %.not.i = icmp eq ptr %5, null
  br i1 %.not.i, label %_ZN4enki10Dependency15ClearDependencyEv.exit, label %6

6:                                                ; preds = %3
  %7 = getelementptr inbounds nuw i8, ptr %5, i64 32
  %8 = load ptr, ptr %7, align 8, !tbaa !30
  %9 = load ptr, ptr %0, align 8, !tbaa !35
  %10 = getelementptr inbounds nuw i8, ptr %9, i64 20
  %11 = load i32, ptr %10, align 4, !tbaa !38
  %12 = add nsw i32 %11, -1
  store i32 %12, ptr %10, align 4, !tbaa !38
  %13 = icmp eq ptr %0, %8
  br i1 %13, label %14, label %.preheader.i

14:                                               ; preds = %6
  %15 = getelementptr inbounds nuw i8, ptr %8, i64 16
  %16 = load ptr, ptr %15, align 8, !tbaa !39
  store ptr %16, ptr %7, align 8, !tbaa !30
  br label %_ZN4enki10Dependency15ClearDependencyEv.exit

.preheader.i:                                     ; preds = %6, %17
  %.09.i = phi ptr [ %19, %17 ], [ %8, %6 ]
  %.not13.i = icmp eq ptr %.09.i, null
  br i1 %.not13.i, label %_ZN4enki10Dependency15ClearDependencyEv.exit, label %17

17:                                               ; preds = %.preheader.i
  %18 = getelementptr inbounds nuw i8, ptr %.09.i, i64 16
  %19 = load ptr, ptr %18, align 8, !tbaa !39
  %20 = icmp eq ptr %0, %19
  br i1 %20, label %.thread.i, label %.preheader.i

.thread.i:                                        ; preds = %17
  %21 = getelementptr inbounds nuw i8, ptr %.09.i, i64 16
  %22 = getelementptr inbounds nuw i8, ptr %19, i64 16
  %23 = load ptr, ptr %22, align 8, !tbaa !39
  store ptr %23, ptr %21, align 8, !tbaa !39
  br label %_ZN4enki10Dependency15ClearDependencyEv.exit

_ZN4enki10Dependency15ClearDependencyEv.exit:     ; preds = %.preheader.i, %3, %14, %.thread.i
  %24 = getelementptr inbounds nuw i8, ptr %0, i64 16
  store i64 0, ptr %24, align 8
  store ptr %1, ptr %4, align 8, !tbaa !143
  store ptr %2, ptr %0, align 8, !tbaa !35
  %25 = getelementptr inbounds nuw i8, ptr %1, i64 32
  %26 = load ptr, ptr %25, align 8, !tbaa !30
  %27 = getelementptr inbounds nuw i8, ptr %0, i64 16
  store ptr %26, ptr %27, align 8, !tbaa !39
  store ptr %0, ptr %25, align 8, !tbaa !30
  %28 = getelementptr inbounds nuw i8, ptr %2, i64 20
  %29 = load i32, ptr %28, align 4, !tbaa !38
  %30 = add nsw i32 %29, 1
  store i32 %30, ptr %28, align 4, !tbaa !38
  ret void
}